target datalayout = "e-m:e-p270:32:32-p271:32:32-p272:64:64-i64:64-i128:128-f80:128-n8:16:32:64-S128"
target triple = "x86_64-pc-linux-gnu"

%struct.CVodeMemRec = type { ptr, double, ptr, ptr, i32, i32, double, double, ptr, i32, i32, ptr, ptr, i32, i32, ptr, i32, i32, double, double, ptr, i32, i32, i32, i32, ptr, ptr, ptr, i32, i32, ptr, ptr, ptr, i32, double, i32, i32, double, ptr, ptr, ptr, i32, ptr, ptr, i32, i32, i32, double, ptr, ptr, ptr, [13 x ptr], ptr, ptr, ptr, ptr, ptr, ptr, ptr, ptr, ptr, [13 x ptr], ptr, ptr, ptr, ptr, [13 x ptr], ptr, ptr, ptr, ptr, ptr, i32, [13 x ptr], ptr, ptr, ptr, ptr, ptr, i32, i32, double, i32, i32, i32, i32, i32, double, double, double, double, double, double, double, double, [14 x double], [6 x double], [13 x double], double, double, double, double, double, double, double, double, i32, double, double, i32, double, double, ptr, i32, i64, i32, i32, i32, double, double, double, double, double, double, double, double, double, double, double, double, i64, i32, i64, i64, i64, i64, i64, i64, i64, i64, i64, ptr, i64, i64, ptr, i64, i64, ptr, i64, i64, i64, i64, i64, i64, i32, double, double, double, i64, i64, i64, i64, i64, i64, ptr, i32, ptr, i32, ptr, i32, ptr, i32, i32, i64, i32, ptr, i32, ptr, ptr, ptr, ptr, ptr, ptr, i32, i32, ptr, ptr, ptr, ptr, ptr, i64, double, i32, i32, i64, double, double, double, i32, i32, double, i32, i32, i32, i32, i32, i32, i32, i32, i32, i32, i32, i32, i32, i32, i32, i32, ptr, i64, i32, [6 x [4 x double]], i32, i64, ptr, i32, ptr, ptr, double, double, double, ptr, ptr, ptr, double, double, i32, i32, i64, ptr, i32, ptr, i32, i32, [13 x double], ptr, ptr, ptr, i32, ptr, i32 }

; Function Attrs: nounwind uwtable
define double @cvSensNorm(ptr noundef %0, ptr noundef %1, ptr noundef %2) #0 {
  %4 = alloca ptr, align 8
  %5 = alloca ptr, align 8
  %6 = alloca ptr, align 8
  %7 = alloca i32, align 4
  %8 = alloca double, align 8
  store ptr %0, ptr %4, align 8, !tbaa !10
  store ptr %1, ptr %5, align 8, !tbaa !152
  store ptr %2, ptr %6, align 8, !tbaa !152
  call void @llvm.lifetime.start.p0(i64 4, ptr %7) #10
  call void @llvm.lifetime.start.p0(i64 8, ptr %8) #10
  %9 = load ptr, ptr %4, align 8, !tbaa !10
  %10 = getelementptr inbounds nuw %struct.CVodeMemRec, ptr %9, i32 0, i32 23
  %11 = load i32, ptr %10, align 8, !tbaa !230
  %12 = load ptr, ptr %5, align 8, !tbaa !152
  %13 = load ptr, ptr %6, align 8, !tbaa !152
  %14 = load ptr, ptr %4, align 8, !tbaa !10
  %15 = getelementptr inbounds nuw %struct.CVodeMemRec, ptr %14, i32 0, i32 244
  %16 = load ptr, ptr %15, align 8, !tbaa !164
  %17 = call i32 @N_VWrmsNormVectorArray(i32 noundef %11, ptr noundef %12, ptr noundef %13, ptr noundef %16)
  %18 = load ptr, ptr %4, align 8, !tbaa !10
  %19 = getelementptr inbounds nuw %struct.CVodeMemRec, ptr %18, i32 0, i32 244
  %20 = load ptr, ptr %19, align 8, !tbaa !164
  %21 = getelementptr inbounds double, ptr %20, i64 0
  %22 = load double, ptr %21, align 8, !tbaa !150
  store double %22, ptr %8, align 8, !tbaa !150
  store i32 1, ptr %7, align 4, !tbaa !3
  br label %23

23:                                               ; preds = %48, %3
  %24 = load i32, ptr %7, align 4, !tbaa !3
  %25 = load ptr, ptr %4, align 8, !tbaa !10
  %26 = getelementptr inbounds nuw %struct.CVodeMemRec, ptr %25, i32 0, i32 23
  %27 = load i32, ptr %26, align 8, !tbaa !230
  %28 = icmp slt i32 %24, %27
  br i1 %28, label %29, label %51

29:                                               ; preds = %23
  %30 = load ptr, ptr %4, align 8, !tbaa !10
  %31 = getelementptr inbounds nuw %struct.CVodeMemRec, ptr %30, i32 0, i32 244
  %32 = load ptr, ptr %31, align 8, !tbaa !164
  %33 = load i32, ptr %7, align 4, !tbaa !3
  %34 = sext i32 %33 to i64
  %35 = getelementptr inbounds double, ptr %32, i64 %34
  %36 = load double, ptr %35, align 8, !tbaa !150
  %37 = load double, ptr %8, align 8, !tbaa !150
  %38 = fcmp ogt double %36, %37
  br i1 %38, label %39, label %47

39:                                               ; preds = %29
  %40 = load ptr, ptr %4, align 8, !tbaa !10
  %41 = getelementptr inbounds nuw %struct.CVodeMemRec, ptr %40, i32 0, i32 244
  %42 = load ptr, ptr %41, align 8, !tbaa !164
  %43 = load i32, ptr %7, align 4, !tbaa !3
  %44 = sext i32 %43 to i64
  %45 = getelementptr inbounds double, ptr %42, i64 %44
  %46 = load double, ptr %45, align 8, !tbaa !150
  store double %46, ptr %8, align 8, !tbaa !150
  br label %47

47:                                               ; preds = %39, %29
  br label %48

48:                                               ; preds = %47
  %49 = load i32, ptr %7, align 4, !tbaa !3
  %50 = add nsw i32 %49, 1
  store i32 %50, ptr %7, align 4, !tbaa !3
  br label %23

51:                                               ; preds = %23
  %52 = load double, ptr %8, align 8, !tbaa !150
  call void @llvm.lifetime.end.p0(i64 8, ptr %8) #10
  call void @llvm.lifetime.end.p0(i64 4, ptr %7) #10
  ret double %52
}

; Function Attrs: nounwind uwtable
define double @cvSensUpdateNorm(ptr noundef %0, double noundef %1, ptr noundef %2, ptr noundef %3) #0 {
  %5 = alloca double, align 8
  %6 = alloca ptr, align 8
  %7 = alloca double, align 8
  %8 = alloca ptr, align 8
  %9 = alloca ptr, align 8
  %10 = alloca double, align 8
  %11 = alloca i32, align 4
  store ptr %0, ptr %6, align 8, !tbaa !10
  store double %1, ptr %7, align 8, !tbaa !150
  store ptr %2, ptr %8, align 8, !tbaa !152
  store ptr %3, ptr %9, align 8, !tbaa !152
  call void @llvm.lifetime.start.p0(i64 8, ptr %10) #10
  %12 = load ptr, ptr %6, align 8, !tbaa !10
  %13 = load ptr, ptr %8, align 8, !tbaa !152
  %14 = load ptr, ptr %9, align 8, !tbaa !152
  %15 = call double @cvSensNorm(ptr noundef %12, ptr noundef %13, ptr noundef %14)
  store double %15, ptr %10, align 8, !tbaa !150
  %16 = load double, ptr %7, align 8, !tbaa !150
  %17 = load double, ptr %10, align 8, !tbaa !150
  %18 = fcmp ogt double %16, %17
  br i1 %18, label %19, label %21

19:                                               ; preds = %4
  %20 = load double, ptr %7, align 8, !tbaa !150
  store double %20, ptr %5, align 8
  store i32 1, ptr %11, align 4
  br label %23

21:                                               ; preds = %4
  %22 = load double, ptr %10, align 8, !tbaa !150
  store double %22, ptr %5, align 8
  store i32 1, ptr %11, align 4
  br label %23

23:                                               ; preds = %21, %19
  call void @llvm.lifetime.end.p0(i64 8, ptr %10) #10
  %24 = load double, ptr %5, align 8
  ret double %24
}