; Function Attrs: nounwind uwtable
define double @cvSensUpdateNorm(ptr noundef readonly captures(none) %0, double noundef %1, ptr noundef %2, ptr noundef %3) local_unnamed_addr #0 {
  %5 = getelementptr inbounds nuw i8, ptr %0, i64 144
  %6 = load i32, ptr %5, align 8, !tbaa !156
  %7 = getelementptr inbounds nuw i8, ptr %0, i64 2640
  %8 = load ptr, ptr %7, align 8, !tbaa !103
  %9 = tail call i32 @N_VWrmsNormVectorArray(i32 noundef %6, ptr noundef %2, ptr noundef %3, ptr noundef %8) #13
  %10 = load ptr, ptr %7, align 8, !tbaa !103
  %11 = load double, ptr %10, align 8, !tbaa !69
  %12 = load i32, ptr %5, align 8, !tbaa !156
  %13 = icmp sgt i32 %12, 1
  br i1 %13, label %.lr.ph.preheader.i, label %cvSensNorm.exit

.lr.ph.preheader.i:                               ; preds = %4
  %wide.trip.count.i = zext nneg i32 %12 to i64
  br label %.lr.ph.i

.lr.ph.i:                                         ; preds = %.lr.ph.i, %.lr.ph.preheader.i
  %indvars.iv.i = phi i64 [ 1, %.lr.ph.preheader.i ], [ %indvars.iv.next.i, %.lr.ph.i ]
  %.016.i = phi double [ %11, %.lr.ph.preheader.i ], [ %.1.i, %.lr.ph.i ]
  %14 = getelementptr inbounds nuw double, ptr %10, i64 %indvars.iv.i
  %15 = load double, ptr %14, align 8, !tbaa !69
  %16 = fcmp ogt double %15, %.016.i
  %.1.i = select i1 %16, double %15, double %.016.i
  %indvars.iv.next.i = add nuw nsw i64 %indvars.iv.i, 1
  %exitcond.not.i = icmp eq i64 %indvars.iv.next.i, %wide.trip.count.i
  br i1 %exitcond.not.i, label %cvSensNorm.exit, label %.lr.ph.i

cvSensNorm.exit:                                  ; preds = %.lr.ph.i, %4
  %.0.lcssa.i = phi double [ %11, %4 ], [ %.1.i, %.lr.ph.i ]
  %17 = fcmp ogt double %1, %.0.lcssa.i
  %. = select i1 %17, double %1, double %.0.lcssa.i
  ret double %.
}